; ModuleID = '12/925.c'
source_filename = "12/925.c"
target datalayout = "e-m:e-p270:32:32-p271:32:32-p272:64:64-i64:64-f80:128-n8:16:32:64-S128"
target triple = "x86_64-pc-linux-gnu"

@.str = private unnamed_addr constant [3 x i8] c"%d\00", align 1
@.str.1 = private unnamed_addr constant [4 x i8] c"%d\0A\00", align 1

; Function Attrs: noinline nounwind uwtable
define dso_local i32 @main() #0 {
  %1 = alloca i32, align 4
  %2 = alloca i32, align 4
  %3 = alloca i32, align 4
  %4 = alloca [15 x i32], align 16
  store i32 0, i32* %1, align 4
  %5 = bitcast [15 x i32]* %4 to i8*
  call void @llvm.memset.p0i8.i64(i8* align 16 %5, i8 0, i64 60, i1 false)
  store i32 0, i32* %2, align 4
  br label %6

6:                                                ; preds = %43, %0
  %7 = getelementptr inbounds [15 x i32], [15 x i32]* %4, i64 0, i64 0
  %8 = load i32, i32* %7, align 16
  %9 = icmp ne i32 %8, -1
  br i1 %9, label %10, label %46

10:                                               ; preds = %6
  %11 = getelementptr inbounds [15 x i32], [15 x i32]* %4, i64 0, i64 0
  %12 = call i32 (i8*, ...) @__isoc99_scanf(i8* getelementptr inbounds ([3 x i8], [3 x i8]* @.str, i64 0, i64 0), i32* %11)
  store i32 1, i32* %3, align 4
  br label %13

13:                                               ; preds = %31, %10
  %14 = load i32, i32* %3, align 4
  %15 = sub nsw i32 %14, 1
  %16 = sext i32 %15 to i64
  %17 = getelementptr inbounds [15 x i32], [15 x i32]* %4, i64 0, i64 %16
  %18 = load i32, i32* %17, align 4
  %19 = icmp ne i32 %18, 0
  br i1 %19, label %20, label %24

20:                                               ; preds = %13
  %21 = getelementptr inbounds [15 x i32], [15 x i32]* %4, i64 0, i64 0
  %22 = load i32, i32* %21, align 16
  %23 = icmp ne i32 %22, -1
  br label %24

24:                                               ; preds = %20, %13
  %25 = phi i1 [ false, %13 ], [ %23, %20 ]
  br i1 %25, label %26, label %34

26:                                               ; preds = %24
  %27 = load i32, i32* %3, align 4
  %28 = sext i32 %27 to i64
  %29 = getelementptr inbounds [15 x i32], [15 x i32]* %4, i64 0, i64 %28
  %30 = call i32 (i8*, ...) @__isoc99_scanf(i8* getelementptr inbounds ([3 x i8], [3 x i8]* @.str, i64 0, i64 0), i32* %29)
  br label %31

31:                                               ; preds = %26
  %32 = load i32, i32* %3, align 4
  %33 = add nsw i32 %32, 1
  store i32 %33, i32* %3, align 4
  br label %13

34:                                               ; preds = %24
  %35 = getelementptr inbounds [15 x i32], [15 x i32]* %4, i64 0, i64 0
  %36 = load i32, i32* %35, align 16
  %37 = icmp ne i32 %36, -1
  br i1 %37, label %38, label %42

38:                                               ; preds = %34
  %39 = getelementptr inbounds [15 x i32], [15 x i32]* %4, i64 0, i64 0
  %40 = call i32 @pair(i32* %39)
  %41 = call i32 (i8*, ...) @printf(i8* getelementptr inbounds ([4 x i8], [4 x i8]* @.str.1, i64 0, i64 0), i32 %40)
  br label %42

42:                                               ; preds = %38, %34
  br label %43

43:                                               ; preds = %42
  %44 = load i32, i32* %2, align 4
  %45 = add nsw i32 %44, 1
  store i32 %45, i32* %2, align 4
  br label %6

46:                                               ; preds = %6
  ret i32 0
}

; Function Attrs: argmemonly nounwind willreturn
declare void @llvm.memset.p0i8.i64(i8* nocapture writeonly, i8, i64, i1 immarg) #1

declare dso_local i32 @__isoc99_scanf(i8*, ...) #2

declare dso_local i32 @printf(i8*, ...) #2

; Function Attrs: noinline nounwind uwtable
define dso_local i32 @pair(i32* %0) #0 {
  %2 = alloca i32*, align 8
  %3 = alloca i32, align 4
  %4 = alloca i32, align 4
  %5 = alloca i32, align 4
  %6 = alloca i32, align 4
  %7 = alloca i32, align 4
  store i32* %0, i32** %2, align 8
  store i32 0, i32* %3, align 4
  store i32 1, i32* %4, align 4
  br label %8

8:                                                ; preds = %33, %1
  %9 = load i32*, i32** %2, align 8
  %10 = load i32, i32* %4, align 4
  %11 = sext i32 %10 to i64
  %12 = getelementptr inbounds i32, i32* %9, i64 %11
  %13 = load i32, i32* %12, align 4
  %14 = icmp ne i32 %13, 0
  br i1 %14, label %15, label %36

15:                                               ; preds = %8
  %16 = load i32*, i32** %2, align 8
  %17 = load i32, i32* %4, align 4
  %18 = sext i32 %17 to i64
  %19 = getelementptr inbounds i32, i32* %16, i64 %18
  %20 = load i32, i32* %19, align 4
  %21 = load i32*, i32** %2, align 8
  %22 = getelementptr inbounds i32, i32* %21, i64 0
  %23 = load i32, i32* %22, align 4
  %24 = load i32*, i32** %2, align 8
  %25 = getelementptr inbounds i32, i32* %24, i64 0
  %26 = load i32, i32* %25, align 4
  %27 = add nsw i32 %23, %26
  %28 = icmp eq i32 %20, %27
  br i1 %28, label %29, label %32

29:                                               ; preds = %15
  %30 = load i32, i32* %3, align 4
  %31 = add nsw i32 %30, 1
  store i32 %31, i32* %3, align 4
  br label %32

32:                                               ; preds = %29, %15
  br label %33

33:                                               ; preds = %32
  %34 = load i32, i32* %4, align 4
  %35 = add nsw i32 %34, 1
  store i32 %35, i32* %4, align 4
  br label %8

36:                                               ; preds = %8
  store i32 1, i32* %5, align 4
  br label %37

37:                                               ; preds = %74, %36
  %38 = load i32*, i32** %2, align 8
  %39 = load i32, i32* %5, align 4
  %40 = sub nsw i32 %39, 1
  %41 = sext i32 %40 to i64
  %42 = getelementptr inbounds i32, i32* %38, i64 %41
  %43 = load i32, i32* %42, align 4
  %44 = icmp ne i32 %43, 0
  br i1 %44, label %45, label %77

45:                                               ; preds = %37
  store i32 0, i32* %6, align 4
  br label %46

46:                                               ; preds = %70, %45
  %47 = load i32*, i32** %2, align 8
  %48 = load i32, i32* %6, align 4
  %49 = sext i32 %48 to i64
  %50 = getelementptr inbounds i32, i32* %47, i64 %49
  %51 = load i32, i32* %50, align 4
  %52 = icmp ne i32 %51, 0
  br i1 %52, label %53, label %73

53:                                               ; preds = %46
  %54 = load i32*, i32** %2, align 8
  %55 = load i32, i32* %6, align 4
  %56 = sext i32 %55 to i64
  %57 = getelementptr inbounds i32, i32* %54, i64 %56
  %58 = load i32, i32* %57, align 4
  %59 = load i32*, i32** %2, align 8
  %60 = load i32, i32* %5, align 4
  %61 = sext i32 %60 to i64
  %62 = getelementptr inbounds i32, i32* %59, i64 %61
  %63 = load i32, i32* %62, align 4
  %64 = mul nsw i32 %63, 2
  %65 = icmp eq i32 %58, %64
  br i1 %65, label %66, label %69

66:                                               ; preds = %53
  %67 = load i32, i32* %3, align 4
  %68 = add nsw i32 %67, 1
  store i32 %68, i32* %3, align 4
  br label %69

69:                                               ; preds = %66, %53
  br label %70

70:                                               ; preds = %69
  %71 = load i32, i32* %6, align 4
  %72 = add nsw i32 %71, 1
  store i32 %72, i32* %6, align 4
  br label %46

73:                                               ; preds = %46
  br label %74

74:                                               ; preds = %73
  %75 = load i32, i32* %5, align 4
  %76 = add nsw i32 %75, 1
  store i32 %76, i32* %5, align 4
  br label %37

77:                                               ; preds = %37
  %78 = load i32, i32* %3, align 4
  ret i32 %78
}


!llvm.module.flags = !{!0}
!llvm.ident = !{!1}

!0 = !{i32 1, !"wchar_size", i32 4}
!1 = !{!"clang version 10.0.0-4ubuntu1 "}
